target datalayout = "e-m:e-p270:32:32-p271:32:32-p272:64:64-i64:64-i128:128-f80:128-n8:16:32:64-S128"
target triple = "x86_64-pc-linux-gnu"

%struct.ansi_a_shared_data_t = type { ptr, ptr, ptr, i8, i8, %struct._address, i32, %struct.e_in6_addr, i16, i8 }
%struct._address = type { i32, i32, ptr, ptr }
%struct.e_in6_addr = type { [16 x i8] }

@.str.275 = private unnamed_addr constant [9 x i8] c"Reserved\00", align 1
@hf_ansi_a_rej_cause = internal global i32 0, align 4
@.str.1006 = private unnamed_addr constant [8 x i8] c" - (%s)\00", align 1
@.str.1008 = private unnamed_addr constant [8 x i8] c"%s (%u)\00", align 1

; Function Attrs: null_pointer_is_valid sspstrong uwtable
define internal zeroext i8 @elem_rej_cause(ptr noundef %0, ptr noundef %1, ptr noundef %2, i32 noundef %3, i32 noundef %4, ptr noundef %5) #1 {
  %7 = alloca ptr, align 8
  %8 = alloca ptr, align 8
  %9 = alloca ptr, align 8
  %10 = alloca i32, align 4
  %11 = alloca i32, align 4
  %12 = alloca ptr, align 8
  %13 = alloca i8, align 1
  %14 = alloca i32, align 4
  %15 = alloca ptr, align 8
  store ptr %0, ptr %7, align 8
  store ptr %1, ptr %8, align 8
  store ptr %2, ptr %9, align 8
  store i32 %3, ptr %10, align 4
  store i32 %4, ptr %11, align 4
  store ptr %5, ptr %12, align 8
  call void @llvm.lifetime.start.p0(i64 1, ptr %13) #8
  call void @llvm.lifetime.start.p0(i64 4, ptr %14) #8
  call void @llvm.lifetime.start.p0(i64 8, ptr %15) #8
  %16 = load i32, ptr %10, align 4
  store i32 %16, ptr %14, align 4
  %17 = load ptr, ptr %7, align 8
  %18 = load i32, ptr %14, align 4
  %19 = call zeroext i8 @tvb_get_uint8(ptr noundef %17, i32 noundef %18)
  store i8 %19, ptr %13, align 1
  %20 = load i8, ptr %13, align 1
  %21 = zext i8 %20 to i32
  %22 = call ptr @val_to_str_const(i32 noundef %21, ptr noundef @ansi_a_rej_cause_vals, ptr noundef @.str.275)
  store ptr %22, ptr %15, align 8
  %23 = load ptr, ptr %9, align 8
  %24 = load i32, ptr @hf_ansi_a_rej_cause, align 4
  %25 = load ptr, ptr %7, align 8
  %26 = load i32, ptr %14, align 4
  %27 = load i8, ptr %13, align 1
  %28 = zext i8 %27 to i32
  %29 = load ptr, ptr %15, align 8
  %30 = load i8, ptr %13, align 1
  %31 = zext i8 %30 to i32
  %32 = call ptr (ptr, i32, ptr, i32, i32, i32, ptr, ...) @proto_tree_add_uint_format_value(ptr noundef %23, i32 noundef %24, ptr noundef %25, i32 noundef %26, i32 noundef 1, i32 noundef %28, ptr noundef @.str.1008, ptr noundef %29, i32 noundef %31)
  %33 = load ptr, ptr %12, align 8
  %34 = getelementptr inbounds nuw %struct.ansi_a_shared_data_t, ptr %33, i32 0, i32 1
  %35 = load ptr, ptr %34, align 8
  %36 = icmp ne ptr %35, null
  br i1 %36, label %37, label %42

37:                                               ; preds = %6
  %38 = load ptr, ptr %12, align 8
  %39 = getelementptr inbounds nuw %struct.ansi_a_shared_data_t, ptr %38, i32 0, i32 1
  %40 = load ptr, ptr %39, align 8
  %41 = load ptr, ptr %15, align 8
  call void (ptr, ptr, ...) @proto_item_append_text(ptr noundef %40, ptr noundef @.str.1006, ptr noundef %41)
  br label %42

42:                                               ; preds = %37, %6
  %43 = load i32, ptr %14, align 4
  %44 = add i32 %43, 1
  store i32 %44, ptr %14, align 4
  %45 = load i32, ptr %14, align 4
  %46 = load i32, ptr %10, align 4
  %47 = sub i32 %45, %46
  %48 = trunc i32 %47 to i8
  call void @llvm.lifetime.end.p0(i64 8, ptr %15) #8
  call void @llvm.lifetime.end.p0(i64 4, ptr %14) #8
  call void @llvm.lifetime.end.p0(i64 1, ptr %13) #8
  ret i8 %48
}