; Function Attrs: null_pointer_is_valid sspstrong uwtable
define internal noundef zeroext i8 @elem_rej_cause(ptr noundef %0, ptr readnone captures(none) %1, ptr noundef %2, i32 noundef %3, i32 %4, ptr noundef readonly captures(none) %5) #1 {
  %7 = tail call zeroext i8 @tvb_get_uint8(ptr noundef %0, i32 noundef %3)
  %8 = zext i8 %7 to i32
  %9 = tail call ptr @val_to_str_const(i32 noundef %8, ptr noundef nonnull @ansi_a_rej_cause_vals, ptr noundef nonnull @.str.275)
  %10 = load i32, ptr @hf_ansi_a_rej_cause, align 4
  %11 = tail call ptr (ptr, i32, ptr, i32, i32, i32, ptr, ...) @proto_tree_add_uint_format_value(ptr noundef %2, i32 noundef %10, ptr noundef %0, i32 noundef %3, i32 noundef 1, i32 noundef %8, ptr noundef nonnull @.str.1008, ptr noundef %9, i32 noundef %8)
  %12 = getelementptr inbounds nuw i8, ptr %5, i64 8
  %13 = load ptr, ptr %12, align 8
  %.not = icmp eq ptr %13, null
  br i1 %.not, label %15, label %14

14:                                               ; preds = %6
  tail call void (ptr, ptr, ...) @proto_item_append_text(ptr noundef nonnull %13, ptr noundef nonnull @.str.1006, ptr noundef %9)
  br label %15

15:                                               ; preds = %14, %6
  ret i8 1
}